target datalayout = "e-m:e-p270:32:32-p271:32:32-p272:64:64-i64:64-i128:128-f80:128-n8:16:32:64-S128"
target triple = "x86_64-pc-linux-gnu"

; Function Attrs: nounwind uwtable
define void @ff_g723_1_gen_dirac_train(ptr noundef %0, i32 noundef %1) #0 {
  %3 = alloca ptr, align 8
  %4 = alloca i32, align 4
  %5 = alloca [60 x i16], align 16
  %6 = alloca i32, align 4
  %7 = alloca i32, align 4
  store ptr %0, ptr %3, align 8, !tbaa !4
  store i32 %1, ptr %4, align 4, !tbaa !9
  call void @llvm.lifetime.start.p0(i64 120, ptr %5) #6
  call void @llvm.lifetime.start.p0(i64 4, ptr %6) #6
  call void @llvm.lifetime.start.p0(i64 4, ptr %7) #6
  %8 = getelementptr inbounds [60 x i16], ptr %5, i64 0, i64 0
  %9 = load ptr, ptr %3, align 8, !tbaa !4
  call void @llvm.memcpy.p0.p0.i64(ptr align 16 %8, ptr align 2 %9, i64 120, i1 false)
  %10 = load i32, ptr %4, align 4, !tbaa !9
  store i32 %10, ptr %6, align 4, !tbaa !9
  br label %11

11:                                               ; preds = %40, %2
  %12 = load i32, ptr %6, align 4, !tbaa !9
  %13 = icmp slt i32 %12, 60
  br i1 %13, label %14, label %44

14:                                               ; preds = %11
  store i32 0, ptr %7, align 4, !tbaa !9
  br label %15

15:                                               ; preds = %36, %14
  %16 = load i32, ptr %7, align 4, !tbaa !9
  %17 = load i32, ptr %6, align 4, !tbaa !9
  %18 = sub nsw i32 60, %17
  %19 = icmp slt i32 %16, %18
  br i1 %19, label %20, label %39

20:                                               ; preds = %15
  %21 = load i32, ptr %7, align 4, !tbaa !9
  %22 = sext i32 %21 to i64
  %23 = getelementptr inbounds [60 x i16], ptr %5, i64 0, i64 %22
  %24 = load i16, ptr %23, align 2, !tbaa !11
  %25 = sext i16 %24 to i32
  %26 = load ptr, ptr %3, align 8, !tbaa !4
  %27 = load i32, ptr %6, align 4, !tbaa !9
  %28 = load i32, ptr %7, align 4, !tbaa !9
  %29 = add nsw i32 %27, %28
  %30 = sext i32 %29 to i64
  %31 = getelementptr inbounds i16, ptr %26, i64 %30
  %32 = load i16, ptr %31, align 2, !tbaa !11
  %33 = sext i16 %32 to i32
  %34 = add nsw i32 %33, %25
  %35 = trunc i32 %34 to i16
  store i16 %35, ptr %31, align 2, !tbaa !11
  br label %36

36:                                               ; preds = %20
  %37 = load i32, ptr %7, align 4, !tbaa !9
  %38 = add nsw i32 %37, 1
  store i32 %38, ptr %7, align 4, !tbaa !9
  br label %15, !llvm.loop !18

39:                                               ; preds = %15
  br label %40

40:                                               ; preds = %39
  %41 = load i32, ptr %4, align 4, !tbaa !9
  %42 = load i32, ptr %6, align 4, !tbaa !9
  %43 = add nsw i32 %42, %41
  store i32 %43, ptr %6, align 4, !tbaa !9
  br label %11, !llvm.loop !19

44:                                               ; preds = %11
  call void @llvm.lifetime.end.p0(i64 4, ptr %7) #6
  call void @llvm.lifetime.end.p0(i64 4, ptr %6) #6
  call void @llvm.lifetime.end.p0(i64 120, ptr %5) #6
  ret void
}