; Function Attrs: nofree norecurse nosync nounwind memory(argmem: readwrite) uwtable
define void @ff_g723_1_gen_dirac_train(ptr noundef captures(none) %0, i32 noundef %1) local_unnamed_addr #0 {
  %3 = alloca [60 x i16], align 16
  call void @llvm.lifetime.start.p0(i64 120, ptr nonnull %3) #7
  call void @llvm.memcpy.p0.p0.i64(ptr noundef nonnull align 16 dereferenceable(120) %3, ptr noundef nonnull align 2 dereferenceable(120) %0, i64 120, i1 false)
  %4 = icmp slt i32 %1, 60
  br i1 %4, label %.preheader.preheader, label %._crit_edge14

.preheader.preheader:                             ; preds = %2
  %5 = sext i32 %1 to i64
  br label %.lr.ph.preheader

.lr.ph.preheader:                                 ; preds = %._crit_edge, %.preheader.preheader
  %indvars.iv16 = phi i64 [ %5, %.preheader.preheader ], [ %indvars.iv.next17, %._crit_edge ]
  %6 = sub nsw i64 60, %indvars.iv16
  %invariant.gep = getelementptr i16, ptr %0, i64 %indvars.iv16
  br label %.lr.ph

.lr.ph:                                           ; preds = %.lr.ph.preheader, %.lr.ph
  %indvars.iv = phi i64 [ 0, %.lr.ph.preheader ], [ %indvars.iv.next, %.lr.ph ]
  %7 = getelementptr inbounds nuw [60 x i16], ptr %3, i64 0, i64 %indvars.iv
  %8 = load i16, ptr %7, align 2, !tbaa !4
  %gep = getelementptr i16, ptr %invariant.gep, i64 %indvars.iv
  %9 = load i16, ptr %gep, align 2, !tbaa !4
  %10 = add i16 %9, %8
  store i16 %10, ptr %gep, align 2, !tbaa !4
  %indvars.iv.next = add nuw nsw i64 %indvars.iv, 1
  %11 = icmp slt i64 %indvars.iv.next, %6
  br i1 %11, label %.lr.ph, label %._crit_edge, !llvm.loop !13

._crit_edge:                                      ; preds = %.lr.ph
  %indvars.iv.next17 = add nsw i64 %indvars.iv16, %5
  %12 = icmp slt i64 %indvars.iv.next17, 60
  br i1 %12, label %.lr.ph.preheader, label %._crit_edge14, !llvm.loop !14

._crit_edge14:                                    ; preds = %._crit_edge, %2
  call void @llvm.lifetime.end.p0(i64 120, ptr nonnull %3) #7
  ret void
}